; Function Attrs: mustprogress nounwind uwtable
define dso_local void @_ZN14LinearSequenceD2Ev(ptr noundef nonnull align 8 dereferenceable(57) %0) unnamed_addr #4 align 2 personality ptr @__gxx_personality_v0 {
  store ptr getelementptr inbounds ({ [12 x ptr] }, ptr @_ZTV14LinearSequence, i64 0, i32 0, i64 2), ptr %0, align 8
  %2 = getelementptr inbounds i8, ptr %0, i64 8
  %3 = getelementptr inbounds i8, ptr %0, i64 24
  %4 = load ptr, ptr %3, align 8
  invoke void @_ZNSt8_Rb_treeIiSt4pairIKiiESt10_Select1stIS2_ESt4lessIiESaIS2_EE8_M_eraseEPSt13_Rb_tree_nodeIS2_E(ptr noundef nonnull align 8 dereferenceable(48) %2, ptr noundef %4)
          to label %_ZNSt3mapIiiSt4lessIiESaISt4pairIKiiEEED2Ev.exit unwind label %5

5:                                                ; preds = %1
  %6 = landingpad { ptr, i32 }
          catch ptr null
  %7 = extractvalue { ptr, i32 } %6, 0
  tail call void @__clang_call_terminate(ptr %7) #12
  unreachable

_ZNSt3mapIiiSt4lessIiESaISt4pairIKiiEEED2Ev.exit: ; preds = %1
  tail call void @_ZN8SequenceD2Ev(ptr noundef nonnull align 8 dereferenceable(8) %0) #13
  ret void
}